; Function Attrs: mustprogress uwtable
define dso_local void @_ZN3net14QuicHeaderList18OnHeaderBlockStartEv(ptr nocapture noundef nonnull readonly align 8 dereferenceable(96) %this) unnamed_addr #0 align 2 personality ptr @__gxx_personality_v0 {
entry:
  %ref.tmp2 = alloca %"class.logging::LogMessage", align 8
  %call = tail call noundef zeroext i1 @_ZN7logging22ShouldCreateLogMessageEi(i32 noundef 2)
  %uncompressed_header_bytes_ = getelementptr inbounds i8, ptr %this, i64 88
  %0 = load i64, ptr %uncompressed_header_bytes_, align 8
  %cmp.not = icmp ne i64 %0, 0
  %or.cond.not = select i1 %call, i1 %cmp.not, i1 false
  br i1 %or.cond.not, label %cond.false, label %cleanup.done

cond.false:                                       ; preds = %entry
  call void @_ZN7logging10LogMessageC1EPKcii(ptr noundef nonnull align 8 dereferenceable(404) %ref.tmp2, ptr noundef nonnull @.str, i32 noundef 25, i32 noundef 2)
  %stream_.i = getelementptr inbounds i8, ptr %ref.tmp2, i64 8
  %call5 = invoke noundef nonnull align 8 dereferenceable(8) ptr @_ZStlsISt11char_traitsIcEERSt13basic_ostreamIcT_ES5_PKc(ptr noundef nonnull align 8 dereferenceable(8) %stream_.i, ptr noundef nonnull @.str.1)
          to label %invoke.cont4 unwind label %lpad

invoke.cont4:                                     ; preds = %cond.false
  call void @_ZN7logging10LogMessageD1Ev(ptr noundef nonnull align 8 dereferenceable(404) %ref.tmp2) #14
  br label %cleanup.done

cleanup.done:                                     ; preds = %entry, %invoke.cont4
  ret void

lpad:                                             ; preds = %cond.false
  %1 = landingpad { ptr, i32 }
          cleanup
  call void @_ZN7logging10LogMessageD1Ev(ptr noundef nonnull align 8 dereferenceable(404) %ref.tmp2) #14
  resume { ptr, i32 } %1
}